target datalayout = "e-m:e-p270:32:32-p271:32:32-p272:64:64-i64:64-i128:128-f80:128-n8:16:32:64-S128"
target triple = "x86_64-unknown-linux-gnu"

%"class.std::ios_base::Init" = type { i8 }
%"class.(anonymous namespace)::g_timeout_eh" = type { %class.event_handler.base, [4 x i8] }
%class.event_handler.base = type <{ ptr, i32 }>
%"class.std::basic_ostream" = type { ptr, %"class.std::basic_ios" }
%"class.std::basic_ios" = type { %"class.std::ios_base", ptr, i8, i8, ptr, ptr, ptr, ptr }
%"class.std::ios_base" = type { ptr, i64, i64, i32, i32, i32, ptr, %"struct.std::ios_base::_Words", [8 x %"struct.std::ios_base::_Words"], i32, ptr, %"class.std::locale" }
%"struct.std::ios_base::_Words" = type { ptr, i64 }
%"class.std::locale" = type { ptr }
%class.event_handler = type <{ ptr, i32, [4 x i8] }>

$_ZN13event_handlerC2Ev = comdat any

$_ZN13event_handlerD2Ev = comdat any

$_ZN13event_handlerD0Ev = comdat any

$_ZN8z3_errorD2Ev = comdat any

$_ZN12z3_exceptionD2Ev = comdat any

$_ZTS13event_handler = comdat any

$_ZTI13event_handler = comdat any

$_ZTV13event_handler = comdat any

@_ZStL8__ioinit = internal global %"class.std::ios_base::Init" zeroinitializer, align 1
@__dso_handle = external hidden global i8
@_ZL2eh = internal global %"class.(anonymous namespace)::g_timeout_eh" zeroinitializer, align 8
@_ZL9g_timeout = internal global ptr null, align 8
@_ZL12g_on_timeout = internal global ptr null, align 8
@_ZTVN12_GLOBAL__N_112g_timeout_ehE = internal unnamed_addr constant { [5 x ptr] } { [5 x ptr] [ptr null, ptr @_ZTIN12_GLOBAL__N_112g_timeout_ehE, ptr @_ZN12_GLOBAL__N_112g_timeout_ehD2Ev, ptr @_ZN12_GLOBAL__N_112g_timeout_ehD0Ev, ptr @_ZN12_GLOBAL__N_112g_timeout_ehclE22event_handler_caller_t] }, align 8
@_ZTVN10__cxxabiv120__si_class_type_infoE = external global [0 x ptr]
@_ZTSN12_GLOBAL__N_112g_timeout_ehE = internal constant [31 x i8] c"N12_GLOBAL__N_112g_timeout_ehE\00", align 1
@_ZTVN10__cxxabiv117__class_type_infoE = external global [0 x ptr]
@_ZTS13event_handler = linkonce_odr hidden constant [16 x i8] c"13event_handler\00", comdat, align 1
@_ZTI13event_handler = linkonce_odr hidden constant { ptr, ptr } { ptr getelementptr inbounds (ptr, ptr @_ZTVN10__cxxabiv117__class_type_infoE, i64 2), ptr @_ZTS13event_handler }, comdat, align 8
@_ZTIN12_GLOBAL__N_112g_timeout_ehE = internal constant { ptr, ptr, ptr } { ptr getelementptr inbounds (ptr, ptr @_ZTVN10__cxxabiv120__si_class_type_infoE, i64 2), ptr @_ZTSN12_GLOBAL__N_112g_timeout_ehE, ptr @_ZTI13event_handler }, align 8
@_ZTV13event_handler = linkonce_odr hidden unnamed_addr constant { [5 x ptr] } { [5 x ptr] [ptr null, ptr @_ZTI13event_handler, ptr @_ZN13event_handlerD2Ev, ptr @_ZN13event_handlerD0Ev, ptr @__cxa_pure_virtual] }, comdat, align 8
@_ZSt4cout = external global %"class.std::basic_ostream", align 8
@.str = private unnamed_addr constant [9 x i8] c"timeout\0A\00", align 1
@_ZTI8z3_error = external constant ptr
@llvm.global_ctors = appending global [1 x { i32, ptr, ptr }] [{ i32, ptr, ptr } { i32 65535, ptr @_GLOBAL__sub_I_timeout.cpp, ptr null }]

; Function Attrs: uwtable
define internal void @__cxx_global_var_init() #0 section ".text.startup" {
entry:
  call void @_ZNSt8ios_base4InitC1Ev(ptr noundef nonnull align 1 dereferenceable(1) @_ZStL8__ioinit)
  %0 = call i32 @__cxa_atexit(ptr @_ZNSt8ios_base4InitD1Ev, ptr @_ZStL8__ioinit, ptr @__dso_handle) #3
  ret void
}

declare void @_ZNSt8ios_base4InitC1Ev(ptr noundef nonnull align 1 dereferenceable(1)) unnamed_addr #1

; Function Attrs: nounwind
declare void @_ZNSt8ios_base4InitD1Ev(ptr noundef nonnull align 1 dereferenceable(1)) unnamed_addr #2

; Function Attrs: nounwind
declare i32 @__cxa_atexit(ptr, ptr, ptr) #3

; Function Attrs: uwtable
define internal void @__cxx_global_var_init.1() #0 section ".text.startup" {
entry:
  call void @_ZN12_GLOBAL__N_112g_timeout_ehC2Ev(ptr noundef nonnull align 8 dereferenceable(12) @_ZL2eh)
  %0 = call i32 @__cxa_atexit(ptr @_ZN12_GLOBAL__N_112g_timeout_ehD2Ev, ptr @_ZL2eh, ptr @__dso_handle) #3
  ret void
}

; Function Attrs: mustprogress uwtable
define internal void @_ZN12_GLOBAL__N_112g_timeout_ehC2Ev(ptr noundef nonnull align 8 dereferenceable(12) %this) unnamed_addr #4 align 2 {
entry:
  %this.addr = alloca ptr, align 8
  store ptr %this, ptr %this.addr, align 8
  %this1 = load ptr, ptr %this.addr, align 8
  call void @_ZN13event_handlerC2Ev(ptr noundef nonnull align 8 dereferenceable(12) %this1)
  store ptr getelementptr inbounds ({ [5 x ptr] }, ptr @_ZTVN12_GLOBAL__N_112g_timeout_ehE, i32 0, i32 0, i32 2), ptr %this1, align 8
  ret void
}

; Function Attrs: mustprogress nounwind uwtable
define internal void @_ZN12_GLOBAL__N_112g_timeout_ehD2Ev(ptr noundef nonnull align 8 dereferenceable(12) %this) unnamed_addr #5 align 2 {
entry:
  %this.addr = alloca ptr, align 8
  store ptr %this, ptr %this.addr, align 8
  %this1 = load ptr, ptr %this.addr, align 8
  call void @_ZN13event_handlerD2Ev(ptr noundef nonnull align 8 dereferenceable(12) %this1) #3
  ret void
}

; Function Attrs: mustprogress uwtable
define hidden void @_Z11set_timeoutl(i64 noundef %ms) #4 personality ptr @__gxx_personality_v0 {
entry:
  %ms.addr = alloca i64, align 8
  %exn.slot = alloca ptr, align 8
  %ehselector.slot = alloca i32, align 4
  store i64 %ms, ptr %ms.addr, align 8
  %call = call noalias noundef nonnull ptr @_Znwm(i64 noundef 8) #9
  %0 = load i64, ptr %ms.addr, align 8
  %conv = trunc i64 %0 to i32
  invoke void @_ZN12scoped_timerC1EjP13event_handler(ptr noundef nonnull align 8 dereferenceable(8) %call, i32 noundef %conv, ptr noundef @_ZL2eh)
          to label %invoke.cont unwind label %lpad

invoke.cont:                                      ; preds = %entry
  store ptr %call, ptr @_ZL9g_timeout, align 8
  ret void

lpad:                                             ; preds = %entry
  %1 = landingpad { ptr, i32 }
          cleanup
  %2 = extractvalue { ptr, i32 } %1, 0
  store ptr %2, ptr %exn.slot, align 8
  %3 = extractvalue { ptr, i32 } %1, 1
  store i32 %3, ptr %ehselector.slot, align 4
  call void @_ZdlPv(ptr noundef %call) #10
  br label %eh.resume

eh.resume:                                        ; preds = %lpad
  %exn = load ptr, ptr %exn.slot, align 8
  %sel = load i32, ptr %ehselector.slot, align 4
  %lpad.val = insertvalue { ptr, i32 } poison, ptr %exn, 0
  %lpad.val1 = insertvalue { ptr, i32 } %lpad.val, i32 %sel, 1
  resume { ptr, i32 } %lpad.val1
}

; Function Attrs: nobuiltin allocsize(0)
declare noundef nonnull ptr @_Znwm(i64 noundef) #6

declare void @_ZN12scoped_timerC1EjP13event_handler(ptr noundef nonnull align 8 dereferenceable(8), i32 noundef, ptr noundef) unnamed_addr #1

declare i32 @__gxx_personality_v0(...)

; Function Attrs: nobuiltin nounwind
declare void @_ZdlPv(ptr noundef) #7

; Function Attrs: mustprogress nounwind uwtable
define hidden void @_Z15disable_timeoutv() #5 {
entry:
  %0 = load ptr, ptr @_ZL9g_timeout, align 8
  %isnull = icmp eq ptr %0, null
  br i1 %isnull, label %delete.end, label %delete.notnull

delete.notnull:                                   ; preds = %entry
  call void @_ZN12scoped_timerD1Ev(ptr noundef nonnull align 8 dereferenceable(8) %0) #3
  call void @_ZdlPv(ptr noundef %0) #10
  br label %delete.end

delete.end:                                       ; preds = %delete.notnull, %entry
  ret void
}

; Function Attrs: nounwind
declare void @_ZN12scoped_timerD1Ev(ptr noundef nonnull align 8 dereferenceable(8)) unnamed_addr #2

; Function Attrs: mustprogress nounwind uwtable
define hidden void @_Z24register_on_timeout_procPFvvE(ptr noundef %proc) #5 {
entry:
  %proc.addr = alloca ptr, align 8
  store ptr %proc, ptr %proc.addr, align 8
  %0 = load ptr, ptr %proc.addr, align 8
  store ptr %0, ptr @_ZL12g_on_timeout, align 8
  ret void
}

; Function Attrs: mustprogress nounwind uwtable
define linkonce_odr hidden void @_ZN13event_handlerC2Ev(ptr noundef nonnull align 8 dereferenceable(12) %this) unnamed_addr #5 comdat align 2 {
entry:
  %this.addr = alloca ptr, align 8
  store ptr %this, ptr %this.addr, align 8
  %this1 = load ptr, ptr %this.addr, align 8
  store ptr getelementptr inbounds ({ [5 x ptr] }, ptr @_ZTV13event_handler, i32 0, i32 0, i32 2), ptr %this1, align 8
  %m_caller_id = getelementptr inbounds %class.event_handler, ptr %this1, i32 0, i32 1
  store i32 0, ptr %m_caller_id, align 8
  ret void
}

; Function Attrs: mustprogress nounwind uwtable
define internal void @_ZN12_GLOBAL__N_112g_timeout_ehD0Ev(ptr noundef nonnull align 8 dereferenceable(12) %this) unnamed_addr #5 align 2 {
entry:
  %this.addr = alloca ptr, align 8
  store ptr %this, ptr %this.addr, align 8
  %this1 = load ptr, ptr %this.addr, align 8
  call void @_ZN12_GLOBAL__N_112g_timeout_ehD2Ev(ptr noundef nonnull align 8 dereferenceable(12) %this1) #3
  call void @_ZdlPv(ptr noundef %this1) #10
  ret void
}

; Function Attrs: mustprogress uwtable
define internal void @_ZN12_GLOBAL__N_112g_timeout_ehclE22event_handler_caller_t(ptr noundef nonnull align 8 dereferenceable(12) %this, i32 noundef %caller_id) unnamed_addr #4 align 2 personality ptr @__gxx_personality_v0 {
entry:
  %this.addr = alloca ptr, align 8
  %caller_id.addr = alloca i32, align 4
  %exn.slot = alloca ptr, align 8
  %ehselector.slot = alloca i32, align 4
  store ptr %this, ptr %this.addr, align 8
  store i32 %caller_id, ptr %caller_id.addr, align 4
  %this1 = load ptr, ptr %this.addr, align 8
  %0 = load i32, ptr %caller_id.addr, align 4
  %m_caller_id = getelementptr inbounds %class.event_handler, ptr %this1, i32 0, i32 1
  store i32 %0, ptr %m_caller_id, align 8
  %call = call noundef nonnull align 8 dereferenceable(8) ptr @_ZStlsISt11char_traitsIcEERSt13basic_ostreamIcT_ES5_PKc(ptr noundef nonnull align 8 dereferenceable(8) @_ZSt4cout, ptr noundef @.str)
  %call2 = call noundef nonnull align 8 dereferenceable(8) ptr @_ZNSo5flushEv(ptr noundef nonnull align 8 dereferenceable(8) @_ZSt4cout)
  %1 = load ptr, ptr @_ZL12g_on_timeout, align 8
  %tobool = icmp ne ptr %1, null
  br i1 %tobool, label %if.then, label %if.end

if.then:                                          ; preds = %entry
  %2 = load ptr, ptr @_ZL12g_on_timeout, align 8
  call void %2()
  br label %if.end

if.end:                                           ; preds = %if.then, %entry
  %exception = call ptr @__cxa_allocate_exception(i64 16) #3
  invoke void @_ZN8z3_errorC1Ej(ptr noundef nonnull align 8 dereferenceable(12) %exception, i32 noundef 102)
          to label %invoke.cont unwind label %lpad

invoke.cont:                                      ; preds = %if.end
  call void @__cxa_throw(ptr %exception, ptr @_ZTI8z3_error, ptr @_ZN8z3_errorD2Ev) #11
  unreachable

lpad:                                             ; preds = %if.end
  %3 = landingpad { ptr, i32 }
          cleanup
  %4 = extractvalue { ptr, i32 } %3, 0
  store ptr %4, ptr %exn.slot, align 8
  %5 = extractvalue { ptr, i32 } %3, 1
  store i32 %5, ptr %ehselector.slot, align 4
  call void @__cxa_free_exception(ptr %exception) #3
  br label %eh.resume

eh.resume:                                        ; preds = %lpad
  %exn = load ptr, ptr %exn.slot, align 8
  %sel = load i32, ptr %ehselector.slot, align 4
  %lpad.val = insertvalue { ptr, i32 } poison, ptr %exn, 0
  %lpad.val3 = insertvalue { ptr, i32 } %lpad.val, i32 %sel, 1
  resume { ptr, i32 } %lpad.val3
}

; Function Attrs: mustprogress nounwind uwtable
define linkonce_odr hidden void @_ZN13event_handlerD2Ev(ptr noundef nonnull align 8 dereferenceable(12) %this) unnamed_addr #5 comdat align 2 {
entry:
  %this.addr = alloca ptr, align 8
  store ptr %this, ptr %this.addr, align 8
  ret void
}

; Function Attrs: mustprogress nounwind uwtable
define linkonce_odr hidden void @_ZN13event_handlerD0Ev(ptr noundef nonnull align 8 dereferenceable(12) %this) unnamed_addr #5 comdat align 2 {
entry:
  %this.addr = alloca ptr, align 8
  store ptr %this, ptr %this.addr, align 8
  call void @llvm.trap() #12
  unreachable
}

declare void @__cxa_pure_virtual() unnamed_addr

; Function Attrs: cold noreturn nounwind memory(inaccessiblemem: write)
declare void @llvm.trap() #8

declare noundef nonnull align 8 dereferenceable(8) ptr @_ZStlsISt11char_traitsIcEERSt13basic_ostreamIcT_ES5_PKc(ptr noundef nonnull align 8 dereferenceable(8), ptr noundef) #1

declare noundef nonnull align 8 dereferenceable(8) ptr @_ZNSo5flushEv(ptr noundef nonnull align 8 dereferenceable(8)) #1

declare ptr @__cxa_allocate_exception(i64)

declare void @_ZN8z3_errorC1Ej(ptr noundef nonnull align 8 dereferenceable(12), i32 noundef) unnamed_addr #1

declare void @__cxa_free_exception(ptr)

; Function Attrs: mustprogress nounwind uwtable
define linkonce_odr hidden void @_ZN8z3_errorD2Ev(ptr noundef nonnull align 8 dereferenceable(12) %this) unnamed_addr #5 comdat align 2 {
entry:
  %this.addr = alloca ptr, align 8
  store ptr %this, ptr %this.addr, align 8
  %this1 = load ptr, ptr %this.addr, align 8
  call void @_ZN12z3_exceptionD2Ev(ptr noundef nonnull align 8 dereferenceable(8) %this1) #3
  ret void
}

declare void @__cxa_throw(ptr, ptr, ptr)

; Function Attrs: mustprogress nounwind uwtable
define linkonce_odr hidden void @_ZN12z3_exceptionD2Ev(ptr noundef nonnull align 8 dereferenceable(8) %this) unnamed_addr #5 comdat align 2 {
entry:
  %this.addr = alloca ptr, align 8
  store ptr %this, ptr %this.addr, align 8
  ret void
}

; Function Attrs: uwtable
define internal void @_GLOBAL__sub_I_timeout.cpp() #0 section ".text.startup" {
entry:
  call void @__cxx_global_var_init()
  call void @__cxx_global_var_init.1()
  ret void
}


!llvm.module.flags = !{!0, !1, !2, !3}

!0 = !{i32 1, !"wchar_size", i32 4}
!1 = !{i32 8, !"PIC Level", i32 2}
!2 = !{i32 7, !"uwtable", i32 2}
!3 = !{i32 7, !"frame-pointer", i32 2}
