; ModuleID = 'bench/z3/original/timeout.cpp.ll'
source_filename = "bench/z3/original/timeout.cpp.ll"
target datalayout = "e-m:e-p270:32:32-p271:32:32-p272:64:64-i64:64-i128:128-f80:128-n8:16:32:64-S128"
target triple = "x86_64-unknown-linux-gnu"

%"class.std::ios_base::Init" = type { i8 }
%"class.(anonymous namespace)::g_timeout_eh" = type { %class.event_handler.base, [4 x i8] }
%class.event_handler.base = type <{ ptr, i32 }>
%"class.std::basic_ostream" = type { ptr, %"class.std::basic_ios" }
%"class.std::basic_ios" = type { %"class.std::ios_base", ptr, i8, i8, ptr, ptr, ptr, ptr }
%"class.std::ios_base" = type { ptr, i64, i64, i32, i32, i32, ptr, %"struct.std::ios_base::_Words", [8 x %"struct.std::ios_base::_Words"], i32, ptr, %"class.std::locale" }
%"struct.std::ios_base::_Words" = type { ptr, i64 }
%"class.std::locale" = type { ptr }

$_ZN8z3_errorD2Ev = comdat any

$_ZTS13event_handler = comdat any

$_ZTI13event_handler = comdat any

@_ZStL8__ioinit = internal global %"class.std::ios_base::Init" zeroinitializer, align 1
@__dso_handle = external hidden global i8
@_ZL2eh = internal global %"class.(anonymous namespace)::g_timeout_eh" zeroinitializer, align 8
@_ZL9g_timeout = internal unnamed_addr global ptr null, align 8
@_ZL12g_on_timeout = internal unnamed_addr global ptr null, align 8
@_ZTVN12_GLOBAL__N_112g_timeout_ehE = internal unnamed_addr constant { [5 x ptr] } { [5 x ptr] [ptr null, ptr @_ZTIN12_GLOBAL__N_112g_timeout_ehE, ptr @_ZN12_GLOBAL__N_112g_timeout_ehD2Ev, ptr @_ZN12_GLOBAL__N_112g_timeout_ehD0Ev, ptr @_ZN12_GLOBAL__N_112g_timeout_ehclE22event_handler_caller_t] }, align 8
@_ZTVN10__cxxabiv120__si_class_type_infoE = external global [0 x ptr]
@_ZTSN12_GLOBAL__N_112g_timeout_ehE = internal constant [31 x i8] c"N12_GLOBAL__N_112g_timeout_ehE\00", align 1
@_ZTVN10__cxxabiv117__class_type_infoE = external global [0 x ptr]
@_ZTS13event_handler = linkonce_odr hidden constant [16 x i8] c"13event_handler\00", comdat, align 1
@_ZTI13event_handler = linkonce_odr hidden constant { ptr, ptr } { ptr getelementptr inbounds (ptr, ptr @_ZTVN10__cxxabiv117__class_type_infoE, i64 2), ptr @_ZTS13event_handler }, comdat, align 8
@_ZTIN12_GLOBAL__N_112g_timeout_ehE = internal constant { ptr, ptr, ptr } { ptr getelementptr inbounds (ptr, ptr @_ZTVN10__cxxabiv120__si_class_type_infoE, i64 2), ptr @_ZTSN12_GLOBAL__N_112g_timeout_ehE, ptr @_ZTI13event_handler }, align 8
@_ZSt4cout = external global %"class.std::basic_ostream", align 8
@.str = private unnamed_addr constant [9 x i8] c"timeout\0A\00", align 1
@_ZTI8z3_error = external constant ptr
@llvm.global_ctors = appending global [1 x { i32, ptr, ptr }] [{ i32, ptr, ptr } { i32 65535, ptr @_GLOBAL__sub_I_timeout.cpp, ptr null }]

declare void @_ZNSt8ios_base4InitC1Ev(ptr noundef nonnull align 1 dereferenceable(1)) unnamed_addr #0

; Function Attrs: nounwind
declare void @_ZNSt8ios_base4InitD1Ev(ptr noundef nonnull align 1 dereferenceable(1)) unnamed_addr #1

; Function Attrs: nofree nounwind
declare i32 @__cxa_atexit(ptr, ptr, ptr) local_unnamed_addr #2

; Function Attrs: mustprogress nofree norecurse nosync nounwind willreturn memory(none) uwtable
define internal void @_ZN12_GLOBAL__N_112g_timeout_ehD2Ev(ptr nocapture nonnull readnone align 8 %this) unnamed_addr #3 align 2 {
entry:
  ret void
}

; Function Attrs: mustprogress uwtable
define hidden void @_Z11set_timeoutl(i64 noundef %ms) local_unnamed_addr #4 personality ptr @__gxx_personality_v0 {
entry:
  %call = tail call noalias noundef nonnull dereferenceable(8) ptr @_Znwm(i64 noundef 8) #11
  %conv = trunc i64 %ms to i32
  invoke void @_ZN12scoped_timerC1EjP13event_handler(ptr noundef nonnull align 8 dereferenceable(8) %call, i32 noundef %conv, ptr noundef nonnull @_ZL2eh)
          to label %invoke.cont unwind label %lpad

invoke.cont:                                      ; preds = %entry
  store ptr %call, ptr @_ZL9g_timeout, align 8
  ret void

lpad:                                             ; preds = %entry
  %0 = landingpad { ptr, i32 }
          cleanup
  tail call void @_ZdlPv(ptr noundef nonnull %call) #12
  resume { ptr, i32 } %0
}

; Function Attrs: nobuiltin allocsize(0)
declare noundef nonnull ptr @_Znwm(i64 noundef) local_unnamed_addr #5

declare void @_ZN12scoped_timerC1EjP13event_handler(ptr noundef nonnull align 8 dereferenceable(8), i32 noundef, ptr noundef) unnamed_addr #0

declare i32 @__gxx_personality_v0(...)

; Function Attrs: nobuiltin nounwind
declare void @_ZdlPv(ptr noundef) local_unnamed_addr #6

; Function Attrs: mustprogress nounwind uwtable
define hidden void @_Z15disable_timeoutv() local_unnamed_addr #7 {
entry:
  %0 = load ptr, ptr @_ZL9g_timeout, align 8
  %isnull = icmp eq ptr %0, null
  br i1 %isnull, label %delete.end, label %delete.notnull

delete.notnull:                                   ; preds = %entry
  tail call void @_ZN12scoped_timerD1Ev(ptr noundef nonnull align 8 dereferenceable(8) %0) #13
  tail call void @_ZdlPv(ptr noundef nonnull %0) #12
  br label %delete.end

delete.end:                                       ; preds = %delete.notnull, %entry
  ret void
}

; Function Attrs: nounwind
declare void @_ZN12scoped_timerD1Ev(ptr noundef nonnull align 8 dereferenceable(8)) unnamed_addr #1

; Function Attrs: mustprogress nofree norecurse nosync nounwind willreturn memory(write, argmem: none, inaccessiblemem: none) uwtable
define hidden void @_Z24register_on_timeout_procPFvvE(ptr noundef %proc) local_unnamed_addr #8 {
entry:
  store ptr %proc, ptr @_ZL12g_on_timeout, align 8
  ret void
}

; Function Attrs: mustprogress nounwind uwtable
define internal void @_ZN12_GLOBAL__N_112g_timeout_ehD0Ev(ptr noundef nonnull align 8 dereferenceable(12) %this) unnamed_addr #7 align 2 {
entry:
  tail call void @_ZdlPv(ptr noundef nonnull %this) #12
  ret void
}

; Function Attrs: mustprogress noreturn uwtable
define internal void @_ZN12_GLOBAL__N_112g_timeout_ehclE22event_handler_caller_t(ptr nocapture noundef nonnull writeonly align 8 dereferenceable(12) %this, i32 noundef %caller_id) unnamed_addr #9 align 2 personality ptr @__gxx_personality_v0 {
entry:
  %m_caller_id = getelementptr inbounds i8, ptr %this, i64 8
  store i32 %caller_id, ptr %m_caller_id, align 8
  %call = tail call noundef nonnull align 8 dereferenceable(8) ptr @_ZStlsISt11char_traitsIcEERSt13basic_ostreamIcT_ES5_PKc(ptr noundef nonnull align 8 dereferenceable(8) @_ZSt4cout, ptr noundef nonnull @.str)
  %call2 = tail call noundef nonnull align 8 dereferenceable(8) ptr @_ZNSo5flushEv(ptr noundef nonnull align 8 dereferenceable(8) @_ZSt4cout)
  %0 = load ptr, ptr @_ZL12g_on_timeout, align 8
  %tobool.not = icmp eq ptr %0, null
  br i1 %tobool.not, label %if.end, label %if.then

if.then:                                          ; preds = %entry
  tail call void %0()
  br label %if.end

if.end:                                           ; preds = %if.then, %entry
  %exception = tail call ptr @__cxa_allocate_exception(i64 16) #13
  invoke void @_ZN8z3_errorC1Ej(ptr noundef nonnull align 8 dereferenceable(12) %exception, i32 noundef 102)
          to label %invoke.cont unwind label %lpad

invoke.cont:                                      ; preds = %if.end
  tail call void @__cxa_throw(ptr nonnull %exception, ptr nonnull @_ZTI8z3_error, ptr nonnull @_ZN8z3_errorD2Ev) #14
  unreachable

lpad:                                             ; preds = %if.end
  %1 = landingpad { ptr, i32 }
          cleanup
  tail call void @__cxa_free_exception(ptr %exception) #13
  resume { ptr, i32 } %1
}

declare noundef nonnull align 8 dereferenceable(8) ptr @_ZStlsISt11char_traitsIcEERSt13basic_ostreamIcT_ES5_PKc(ptr noundef nonnull align 8 dereferenceable(8), ptr noundef) local_unnamed_addr #0

declare noundef nonnull align 8 dereferenceable(8) ptr @_ZNSo5flushEv(ptr noundef nonnull align 8 dereferenceable(8)) local_unnamed_addr #0

declare ptr @__cxa_allocate_exception(i64) local_unnamed_addr

declare void @_ZN8z3_errorC1Ej(ptr noundef nonnull align 8 dereferenceable(12), i32 noundef) unnamed_addr #0

declare void @__cxa_free_exception(ptr) local_unnamed_addr

; Function Attrs: mustprogress nounwind uwtable
define linkonce_odr hidden void @_ZN8z3_errorD2Ev(ptr noundef nonnull align 8 dereferenceable(12) %this) unnamed_addr #7 comdat align 2 {
entry:
  ret void
}

declare void @__cxa_throw(ptr, ptr, ptr) local_unnamed_addr

; Function Attrs: uwtable
define internal void @_GLOBAL__sub_I_timeout.cpp() #10 section ".text.startup" {
entry:
  tail call void @_ZNSt8ios_base4InitC1Ev(ptr noundef nonnull align 1 dereferenceable(1) @_ZStL8__ioinit)
  %0 = tail call i32 @__cxa_atexit(ptr nonnull @_ZNSt8ios_base4InitD1Ev, ptr nonnull @_ZStL8__ioinit, ptr nonnull @__dso_handle) #13
  store i32 0, ptr getelementptr inbounds (%"class.(anonymous namespace)::g_timeout_eh", ptr @_ZL2eh, i64 0, i32 0, i32 1), align 8
  store ptr getelementptr inbounds ({ [5 x ptr] }, ptr @_ZTVN12_GLOBAL__N_112g_timeout_ehE, i64 0, i32 0, i64 2), ptr @_ZL2eh, align 8
  ret void
}


!llvm.module.flags = !{!0, !1, !2, !3}

!0 = !{i32 1, !"wchar_size", i32 4}
!1 = !{i32 8, !"PIC Level", i32 2}
!2 = !{i32 7, !"uwtable", i32 2}
!3 = !{i32 7, !"frame-pointer", i32 2}
